target datalayout = "e-m:e-p270:32:32-p271:32:32-p272:64:64-i64:64-i128:128-f80:128-n8:16:32:64-S128"
target triple = "x86_64-pc-linux-gnu"

%struct.slurm_step_id_msg = type { i64, i32, i32, i32 }
%struct.job_step_info_t = type { i32, i32, ptr, ptr, ptr, i32, i32, i32, ptr, ptr, ptr, ptr, ptr, ptr, i32, i32, ptr, ptr, i64, ptr, i32, i64, i16, i32, %struct.slurm_step_id_msg, ptr, i32, i32, ptr, ptr, ptr, ptr, ptr, ptr, ptr, i32 }

; Function Attrs: nounwind uwtable
define dso_local void @slurm_free_job_step_info_members(ptr noundef %0) #0 {
  %2 = alloca ptr, align 8
  store ptr %0, ptr %2, align 8
  %3 = load ptr, ptr %2, align 8
  %4 = icmp ne ptr %3, null
  br i1 %4, label %5, label %44

5:                                                ; preds = %1
  %6 = load ptr, ptr %2, align 8
  %7 = getelementptr inbounds nuw %struct.job_step_info_t, ptr %6, i32 0, i32 2
  call void @slurm_xfree(ptr noundef %7)
  %8 = load ptr, ptr %2, align 8
  %9 = getelementptr inbounds nuw %struct.job_step_info_t, ptr %8, i32 0, i32 3
  call void @slurm_xfree(ptr noundef %9)
  %10 = load ptr, ptr %2, align 8
  %11 = getelementptr inbounds nuw %struct.job_step_info_t, ptr %10, i32 0, i32 4
  call void @slurm_xfree(ptr noundef %11)
  %12 = load ptr, ptr %2, align 8
  %13 = getelementptr inbounds nuw %struct.job_step_info_t, ptr %12, i32 0, i32 32
  call void @slurm_xfree(ptr noundef %13)
  %14 = load ptr, ptr %2, align 8
  %15 = getelementptr inbounds nuw %struct.job_step_info_t, ptr %14, i32 0, i32 9
  call void @slurm_xfree(ptr noundef %15)
  %16 = load ptr, ptr %2, align 8
  %17 = getelementptr inbounds nuw %struct.job_step_info_t, ptr %16, i32 0, i32 10
  call void @slurm_xfree(ptr noundef %17)
  %18 = load ptr, ptr %2, align 8
  %19 = getelementptr inbounds nuw %struct.job_step_info_t, ptr %18, i32 0, i32 11
  call void @slurm_xfree(ptr noundef %19)
  %20 = load ptr, ptr %2, align 8
  %21 = getelementptr inbounds nuw %struct.job_step_info_t, ptr %20, i32 0, i32 12
  call void @slurm_xfree(ptr noundef %21)
  %22 = load ptr, ptr %2, align 8
  %23 = getelementptr inbounds nuw %struct.job_step_info_t, ptr %22, i32 0, i32 13
  call void @slurm_xfree(ptr noundef %23)
  %24 = load ptr, ptr %2, align 8
  %25 = getelementptr inbounds nuw %struct.job_step_info_t, ptr %24, i32 0, i32 16
  call void @slurm_xfree(ptr noundef %25)
  %26 = load ptr, ptr %2, align 8
  %27 = getelementptr inbounds nuw %struct.job_step_info_t, ptr %26, i32 0, i32 17
  call void @slurm_xfree(ptr noundef %27)
  %28 = load ptr, ptr %2, align 8
  %29 = getelementptr inbounds nuw %struct.job_step_info_t, ptr %28, i32 0, i32 19
  call void @slurm_xfree(ptr noundef %29)
  %30 = load ptr, ptr %2, align 8
  %31 = getelementptr inbounds nuw %struct.job_step_info_t, ptr %30, i32 0, i32 28
  call void @slurm_xfree(ptr noundef %31)
  %32 = load ptr, ptr %2, align 8
  %33 = getelementptr inbounds nuw %struct.job_step_info_t, ptr %32, i32 0, i32 29
  call void @slurm_xfree(ptr noundef %33)
  %34 = load ptr, ptr %2, align 8
  %35 = getelementptr inbounds nuw %struct.job_step_info_t, ptr %34, i32 0, i32 30
  call void @slurm_xfree(ptr noundef %35)
  %36 = load ptr, ptr %2, align 8
  %37 = getelementptr inbounds nuw %struct.job_step_info_t, ptr %36, i32 0, i32 31
  call void @slurm_xfree(ptr noundef %37)
  %38 = load ptr, ptr %2, align 8
  %39 = getelementptr inbounds nuw %struct.job_step_info_t, ptr %38, i32 0, i32 32
  call void @slurm_xfree(ptr noundef %39)
  %40 = load ptr, ptr %2, align 8
  %41 = getelementptr inbounds nuw %struct.job_step_info_t, ptr %40, i32 0, i32 33
  call void @slurm_xfree(ptr noundef %41)
  %42 = load ptr, ptr %2, align 8
  %43 = getelementptr inbounds nuw %struct.job_step_info_t, ptr %42, i32 0, i32 34
  call void @slurm_xfree(ptr noundef %43)
  br label %44

44:                                               ; preds = %5, %1
  ret void
}