; Function Attrs: nounwind uwtable
define dso_local void @slurm_free_job_step_info_members(ptr noundef %0) local_unnamed_addr #1 {
  %.not = icmp eq ptr %0, null
  br i1 %.not, label %21, label %2

2:                                                ; preds = %1
  %3 = getelementptr inbounds nuw i8, ptr %0, i64 8
  tail call void @slurm_xfree(ptr noundef nonnull %3) #24
  %4 = getelementptr inbounds nuw i8, ptr %0, i64 16
  tail call void @slurm_xfree(ptr noundef nonnull %4) #24
  %5 = getelementptr inbounds nuw i8, ptr %0, i64 24
  tail call void @slurm_xfree(ptr noundef nonnull %5) #24
  %6 = getelementptr inbounds nuw i8, ptr %0, i64 232
  tail call void @slurm_xfree(ptr noundef nonnull %6) #24
  %7 = getelementptr inbounds nuw i8, ptr %0, i64 56
  tail call void @slurm_xfree(ptr noundef nonnull %7) #24
  %8 = getelementptr inbounds nuw i8, ptr %0, i64 64
  tail call void @slurm_xfree(ptr noundef nonnull %8) #24
  %9 = getelementptr inbounds nuw i8, ptr %0, i64 72
  tail call void @slurm_xfree(ptr noundef nonnull %9) #24
  %10 = getelementptr inbounds nuw i8, ptr %0, i64 80
  tail call void @slurm_xfree(ptr noundef nonnull %10) #24
  %11 = getelementptr inbounds nuw i8, ptr %0, i64 88
  tail call void @slurm_xfree(ptr noundef nonnull %11) #24
  %12 = getelementptr inbounds nuw i8, ptr %0, i64 104
  tail call void @slurm_xfree(ptr noundef nonnull %12) #24
  %13 = getelementptr inbounds nuw i8, ptr %0, i64 112
  tail call void @slurm_xfree(ptr noundef nonnull %13) #24
  %14 = getelementptr inbounds nuw i8, ptr %0, i64 128
  tail call void @slurm_xfree(ptr noundef nonnull %14) #24
  %15 = getelementptr inbounds nuw i8, ptr %0, i64 200
  tail call void @slurm_xfree(ptr noundef nonnull %15) #24
  %16 = getelementptr inbounds nuw i8, ptr %0, i64 208
  tail call void @slurm_xfree(ptr noundef nonnull %16) #24
  %17 = getelementptr inbounds nuw i8, ptr %0, i64 216
  tail call void @slurm_xfree(ptr noundef nonnull %17) #24
  %18 = getelementptr inbounds nuw i8, ptr %0, i64 224
  tail call void @slurm_xfree(ptr noundef nonnull %18) #24
  tail call void @slurm_xfree(ptr noundef nonnull %6) #24
  %19 = getelementptr inbounds nuw i8, ptr %0, i64 240
  tail call void @slurm_xfree(ptr noundef nonnull %19) #24
  %20 = getelementptr inbounds nuw i8, ptr %0, i64 248
  tail call void @slurm_xfree(ptr noundef nonnull %20) #24
  br label %21

21:                                               ; preds = %2, %1
  ret void
}